; Function Attrs: mustprogress nounwind uwtable
define dso_local noundef zeroext i1 @_ZN5clang4Sema14CheckOtherCallEPNS_8CallExprEPKNS_17FunctionProtoTypeE(ptr noundef nonnull align 8 dereferenceable(17560) %0, ptr noundef %1, ptr noundef %2) local_unnamed_addr #0 align 2 {
  %4 = load i32, ptr %1, align 8
  %5 = lshr i32 %4, 24
  %6 = zext nneg i32 %5 to i64
  %7 = getelementptr inbounds i8, ptr %1, i64 %6
  %8 = load ptr, ptr %7, align 8
  %9 = tail call noundef i32 @_ZN5clang4Sema19getVariadicCallTypeEPNS_12FunctionDeclEPKNS_17FunctionProtoTypeEPNS_4ExprE(ptr noundef nonnull align 8 dereferenceable(17560) %0, ptr noundef null, ptr noundef %2, ptr noundef %8) #25
  %10 = load i32, ptr %1, align 8
  %11 = lshr i32 %10, 24
  %12 = zext nneg i32 %11 to i64
  %13 = getelementptr inbounds i8, ptr %1, i64 %12
  %14 = getelementptr inbounds i8, ptr %13, i64 8
  %15 = lshr i32 %10, 18
  %16 = and i32 %15, 1
  %17 = zext nneg i32 %16 to i64
  %18 = getelementptr inbounds ptr, ptr %14, i64 %17
  %19 = getelementptr inbounds nuw i8, ptr %1, i64 16
  %20 = load i32, ptr %19, align 8
  %21 = zext i32 %20 to i64
  %22 = getelementptr inbounds nuw i8, ptr %1, i64 20
  %.sroa.0.0.copyload.i = load i32, ptr %22, align 4
  %23 = load ptr, ptr %13, align 8
  %24 = tail call i64 @_ZNK5clang4Stmt14getSourceRangeEv(ptr noundef nonnull align 8 dereferenceable(8) %23) #26
  tail call void @_ZN5clang4Sema9checkCallEPNS_9NamedDeclEPKNS_17FunctionProtoTypeEPKNS_4ExprEN4llvm8ArrayRefIS8_EEbNS_14SourceLocationENS_11SourceRangeENS0_16VariadicCallTypeE(ptr noundef nonnull align 8 dereferenceable(17560) %0, ptr noundef null, ptr noundef %2, ptr noundef null, ptr nonnull %18, i64 %21, i1 noundef zeroext false, i32 %.sroa.0.0.copyload.i, i64 %24, i32 noundef %9)
  ret i1 false
}